target datalayout = "e-m:e-p270:32:32-p271:32:32-p272:64:64-i64:64-i128:128-f80:128-n8:16:32:64-S128"
target triple = "x86_64-pc-linux-gnu"

%class.CVQualifiers = type { ptr, i8, i8, %"class.std::vector", %"class.std::vector" }
%"class.std::vector" = type { %"struct.std::_Bvector_base" }
%"struct.std::_Bvector_base" = type { %"struct.std::_Bvector_base<std::allocator<bool>>::_Bvector_impl" }
%"struct.std::_Bvector_base<std::allocator<bool>>::_Bvector_impl" = type { %"struct.std::_Bvector_base<std::allocator<bool>>::_Bvector_impl_data" }
%"struct.std::_Bvector_base<std::allocator<bool>>::_Bvector_impl_data" = type { %"struct.std::_Bit_iterator", %"struct.std::_Bit_iterator", ptr }
%"struct.std::_Bit_iterator" = type { %"struct.std::_Bit_iterator_base.base", [4 x i8] }
%"struct.std::_Bit_iterator_base.base" = type <{ ptr, i32 }>

@_ZN5Error8r_error_E = external global i32, align 4
@_ZN12CVQualifiersC1ERKS_ = dso_local unnamed_addr alias void (ptr, ptr), ptr @_ZN12CVQualifiersC2ERKS_
@_ZN12CVQualifiersD1Ev = dso_local unnamed_addr alias void (ptr), ptr @_ZN12CVQualifiersD2Ev

; Function Attrs: mustprogress nounwind uwtable
define linkonce_odr dso_local noundef i32 @_ZN5Error9get_errorEv() #4 comdat align 2 {
  %1 = load i32, ptr @_ZN5Error8r_error_E, align 4
  ret i32 %1
}

; Function Attrs: mustprogress uwtable
define dso_local void @_ZNK12CVQualifiers21random_add_qualifiersEb(ptr dead_on_unwind noalias writable sret(%class.CVQualifiers) align 8 %0, ptr noundef nonnull align 8 dereferenceable(96) %1, i1 noundef zeroext %2) #5 align 2 personality ptr @__gxx_personality_v0 {
  %4 = alloca ptr, align 8
  %5 = alloca ptr, align 8
  %6 = alloca i8, align 1
  %7 = alloca i1, align 1
  %8 = alloca ptr, align 8
  %9 = alloca i32, align 4
  %10 = alloca i32, align 4
  %11 = alloca i8, align 1
  %12 = alloca i8, align 1
  store ptr %0, ptr %4, align 8
  store ptr %1, ptr %5, align 8
  %13 = zext i1 %2 to i8
  store i8 %13, ptr %6, align 1
  %14 = load ptr, ptr %5, align 8
  store i1 false, ptr %7, align 1
  call void @_ZN12CVQualifiersC1ERKS_(ptr noundef nonnull align 8 dereferenceable(96) %0, ptr noundef nonnull align 8 dereferenceable(96) %14)
  %15 = invoke noundef zeroext i1 @_ZN9CGOptions22match_exact_qualifiersEv()
          to label %16 unwind label %19

16:                                               ; preds = %3
  br i1 %15, label %17, label %23

17:                                               ; preds = %16
  invoke void @_ZN12CVQualifiers14add_qualifiersEbb(ptr noundef nonnull align 8 dereferenceable(96) %0, i1 noundef zeroext false, i1 noundef zeroext false)
          to label %18 unwind label %19

18:                                               ; preds = %17
  store i1 true, ptr %7, align 1
  store i32 1, ptr %10, align 4
  br label %77

19:                                               ; preds = %71, %66, %62, %60, %56, %48, %44, %42, %38, %32, %26, %17, %3
  %20 = landingpad { ptr, i32 }
          cleanup
  %21 = extractvalue { ptr, i32 } %20, 0
  store ptr %21, ptr %8, align 8
  %22 = extractvalue { ptr, i32 } %20, 1
  store i32 %22, ptr %9, align 4
  call void @_ZN12CVQualifiersD1Ev(ptr noundef nonnull align 8 dereferenceable(96) %0) #3
  br label %81

23:                                               ; preds = %16
  %24 = load i8, ptr %6, align 1
  %25 = trunc i8 %24 to i1
  br i1 %25, label %26, label %32

26:                                               ; preds = %23
  %27 = invoke noundef i32 @_ZN9DepthSpec20depth_guard_by_depthEi(i32 noundef 1)
          to label %28 unwind label %19

28:                                               ; preds = %26
  %29 = icmp ne i32 %27, 0
  br i1 %29, label %30, label %31

30:                                               ; preds = %28
  store i1 true, ptr %7, align 1
  store i32 1, ptr %10, align 4
  br label %77

31:                                               ; preds = %28
  br label %38

32:                                               ; preds = %23
  %33 = invoke noundef i32 @_ZN9DepthSpec20depth_guard_by_depthEi(i32 noundef 2)
          to label %34 unwind label %19

34:                                               ; preds = %32
  %35 = icmp ne i32 %33, 0
  br i1 %35, label %36, label %37

36:                                               ; preds = %34
  store i1 true, ptr %7, align 1
  store i32 1, ptr %10, align 4
  br label %77

37:                                               ; preds = %34
  br label %38

38:                                               ; preds = %37, %31
  %39 = invoke noundef zeroext i1 @_ZN9CGOptions14const_pointersEv()
          to label %40 unwind label %19

40:                                               ; preds = %38
  br i1 %39, label %42, label %41

41:                                               ; preds = %40
  store i8 0, ptr %11, align 1
  br label %48

42:                                               ; preds = %40
  %43 = invoke noundef i32 @_ZN13Probabilities8get_probE8ProbName(i32 noundef 9)
          to label %44 unwind label %19

44:                                               ; preds = %42
  %45 = invoke noundef zeroext i1 @_Z12rnd_flipcoinjPK6FilterPKNSt7__cxx1112basic_stringIcSt11char_traitsIcESaIcEEE(i32 noundef %43, ptr noundef null, ptr noundef null)
          to label %46 unwind label %19

46:                                               ; preds = %44
  %47 = zext i1 %45 to i8
  store i8 %47, ptr %11, align 1
  br label %48

48:                                               ; preds = %46, %41
  %49 = invoke noundef i32 @_ZN5Error9get_errorEv()
          to label %50 unwind label %19

50:                                               ; preds = %48
  %51 = icmp ne i32 %49, 0
  br i1 %51, label %52, label %53

52:                                               ; preds = %50
  store i1 true, ptr %7, align 1
  store i32 1, ptr %10, align 4
  br label %77

53:                                               ; preds = %50
  %54 = load i8, ptr %6, align 1
  %55 = trunc i8 %54 to i1
  br i1 %55, label %59, label %56

56:                                               ; preds = %53
  %57 = invoke noundef zeroext i1 @_ZN9CGOptions17volatile_pointersEv()
          to label %58 unwind label %19

58:                                               ; preds = %56
  br i1 %57, label %60, label %59

59:                                               ; preds = %58, %53
  store i8 0, ptr %12, align 1
  br label %66

60:                                               ; preds = %58
  %61 = invoke noundef i32 @_ZN13Probabilities8get_probE8ProbName(i32 noundef 8)
          to label %62 unwind label %19

62:                                               ; preds = %60
  %63 = invoke noundef zeroext i1 @_Z12rnd_flipcoinjPK6FilterPKNSt7__cxx1112basic_stringIcSt11char_traitsIcESaIcEEE(i32 noundef %61, ptr noundef null, ptr noundef null)
          to label %64 unwind label %19

64:                                               ; preds = %62
  %65 = zext i1 %63 to i8
  store i8 %65, ptr %12, align 1
  br label %66

66:                                               ; preds = %64, %59
  %67 = invoke noundef i32 @_ZN5Error9get_errorEv()
          to label %68 unwind label %19

68:                                               ; preds = %66
  %69 = icmp ne i32 %67, 0
  br i1 %69, label %70, label %71

70:                                               ; preds = %68
  store i1 true, ptr %7, align 1
  store i32 1, ptr %10, align 4
  br label %77

71:                                               ; preds = %68
  %72 = load i8, ptr %11, align 1
  %73 = trunc i8 %72 to i1
  %74 = load i8, ptr %12, align 1
  %75 = trunc i8 %74 to i1
  invoke void @_ZN12CVQualifiers14add_qualifiersEbb(ptr noundef nonnull align 8 dereferenceable(96) %0, i1 noundef zeroext %73, i1 noundef zeroext %75)
          to label %76 unwind label %19

76:                                               ; preds = %71
  store i1 true, ptr %7, align 1
  store i32 1, ptr %10, align 4
  br label %77

77:                                               ; preds = %76, %70, %52, %36, %30, %18
  %78 = load i1, ptr %7, align 1
  br i1 %78, label %80, label %79

79:                                               ; preds = %77
  call void @_ZN12CVQualifiersD1Ev(ptr noundef nonnull align 8 dereferenceable(96) %0) #3
  br label %80

80:                                               ; preds = %79, %77
  ret void

81:                                               ; preds = %19
  %82 = load ptr, ptr %8, align 8
  %83 = load i32, ptr %9, align 4
  %84 = insertvalue { ptr, i32 } poison, ptr %82, 0
  %85 = insertvalue { ptr, i32 } %84, i32 %83, 1
  resume { ptr, i32 } %85
}