; Function Attrs: mustprogress uwtable
define dso_local void @_ZNK12CVQualifiers21random_add_qualifiersEb(ptr dead_on_unwind noalias writable sret(%class.CVQualifiers) align 8 %0, ptr noundef nonnull align 8 dereferenceable(96) %1, i1 noundef zeroext %2) local_unnamed_addr #4 align 2 personality ptr @__gxx_personality_v0 {
  store ptr getelementptr inbounds ({ [4 x ptr] }, ptr @_ZTV12CVQualifiers, i64 0, i32 0, i64 2), ptr %0, align 8
  %4 = getelementptr inbounds i8, ptr %0, i64 8
  %5 = getelementptr inbounds i8, ptr %1, i64 8
  %6 = load i8, ptr %5, align 8
  %7 = and i8 %6, 1
  store i8 %7, ptr %4, align 8
  %8 = getelementptr inbounds i8, ptr %0, i64 9
  %9 = getelementptr inbounds i8, ptr %1, i64 9
  %10 = load i8, ptr %9, align 1
  %11 = and i8 %10, 1
  store i8 %11, ptr %8, align 1
  %12 = getelementptr inbounds i8, ptr %0, i64 16
  %13 = getelementptr inbounds i8, ptr %1, i64 16
  tail call void @_ZNSt6vectorIbSaIbEEC2ERKS1_(ptr noundef nonnull align 8 dereferenceable(40) %12, ptr noundef nonnull align 8 dereferenceable(40) %13)
  %14 = getelementptr inbounds i8, ptr %0, i64 56
  %15 = getelementptr inbounds i8, ptr %1, i64 56
  invoke void @_ZNSt6vectorIbSaIbEEC2ERKS1_(ptr noundef nonnull align 8 dereferenceable(40) %14, ptr noundef nonnull align 8 dereferenceable(40) %15)
          to label %_ZN12CVQualifiersC2ERKS_.exit unwind label %16

common.resume:                                    ; preds = %51, %16
  %common.resume.op = phi { ptr, i32 } [ %17, %16 ], [ %52, %51 ]
  resume { ptr, i32 } %common.resume.op

16:                                               ; preds = %3
  %17 = landingpad { ptr, i32 }
          cleanup
  tail call void @_ZNSt6vectorIbSaIbEED2Ev(ptr noundef nonnull align 8 dereferenceable(40) %12) #18
  br label %common.resume

_ZN12CVQualifiersC2ERKS_.exit:                    ; preds = %3
  %18 = invoke noundef zeroext i1 @_ZN9CGOptions22match_exact_qualifiersEv()
          to label %19 unwind label %51

19:                                               ; preds = %_ZN12CVQualifiersC2ERKS_.exit
  br i1 %18, label %20, label %53

20:                                               ; preds = %19
  %21 = getelementptr inbounds i8, ptr %0, i64 32
  %22 = load ptr, ptr %21, align 8
  %23 = getelementptr inbounds i8, ptr %0, i64 48
  %24 = load ptr, ptr %23, align 8
  %.not.i.i = icmp eq ptr %22, %24
  %.sroa.2.0..sroa_idx.i.i.i = getelementptr inbounds i8, ptr %0, i64 40
  %.sroa.2.0.copyload.i5.i.i = load i32, ptr %.sroa.2.0..sroa_idx.i.i.i, align 8
  br i1 %.not.i.i, label %35, label %25

25:                                               ; preds = %20
  %26 = add i32 %.sroa.2.0.copyload.i5.i.i, 1
  store i32 %26, ptr %.sroa.2.0..sroa_idx.i.i.i, align 8
  %27 = icmp eq i32 %.sroa.2.0.copyload.i5.i.i, 63
  br i1 %27, label %28, label %_ZNSt13_Bit_iteratorppEi.exit.i.i

28:                                               ; preds = %25
  store i32 0, ptr %.sroa.2.0..sroa_idx.i.i.i, align 8
  %29 = getelementptr inbounds i8, ptr %22, i64 8
  store ptr %29, ptr %21, align 8
  br label %_ZNSt13_Bit_iteratorppEi.exit.i.i

_ZNSt13_Bit_iteratorppEi.exit.i.i:                ; preds = %28, %25
  %30 = zext nneg i32 %.sroa.2.0.copyload.i5.i.i to i64
  %31 = shl nuw i64 1, %30
  %32 = xor i64 %31, -1
  %33 = load i64, ptr %22, align 8
  %34 = and i64 %33, %32
  store i64 %34, ptr %22, align 8
  br label %_ZNSt6vectorIbSaIbEE9push_backEb.exit.i

35:                                               ; preds = %20
  invoke void @_ZNSt6vectorIbSaIbEE13_M_insert_auxESt13_Bit_iteratorb(ptr noundef nonnull align 8 dereferenceable(40) %12, ptr %22, i32 %.sroa.2.0.copyload.i5.i.i, i1 noundef zeroext false)
          to label %_ZNSt6vectorIbSaIbEE9push_backEb.exit.i unwind label %51

_ZNSt6vectorIbSaIbEE9push_backEb.exit.i:          ; preds = %35, %_ZNSt13_Bit_iteratorppEi.exit.i.i
  %36 = getelementptr inbounds i8, ptr %0, i64 72
  %37 = load ptr, ptr %36, align 8
  %38 = getelementptr inbounds i8, ptr %0, i64 88
  %39 = load ptr, ptr %38, align 8
  %.not.i2.i = icmp eq ptr %37, %39
  %.sroa.2.0..sroa_idx.i.i3.i = getelementptr inbounds i8, ptr %0, i64 80
  %.sroa.2.0.copyload.i5.i4.i = load i32, ptr %.sroa.2.0..sroa_idx.i.i3.i, align 8
  br i1 %.not.i2.i, label %50, label %40

40:                                               ; preds = %_ZNSt6vectorIbSaIbEE9push_backEb.exit.i
  %41 = add i32 %.sroa.2.0.copyload.i5.i4.i, 1
  store i32 %41, ptr %.sroa.2.0..sroa_idx.i.i3.i, align 8
  %42 = icmp eq i32 %.sroa.2.0.copyload.i5.i4.i, 63
  br i1 %42, label %43, label %_ZNSt13_Bit_iteratorppEi.exit.i5.i

43:                                               ; preds = %40
  store i32 0, ptr %.sroa.2.0..sroa_idx.i.i3.i, align 8
  %44 = getelementptr inbounds i8, ptr %37, i64 8
  store ptr %44, ptr %36, align 8
  br label %_ZNSt13_Bit_iteratorppEi.exit.i5.i

_ZNSt13_Bit_iteratorppEi.exit.i5.i:               ; preds = %43, %40
  %45 = zext nneg i32 %.sroa.2.0.copyload.i5.i4.i to i64
  %46 = shl nuw i64 1, %45
  %47 = xor i64 %46, -1
  %48 = load i64, ptr %37, align 8
  %49 = and i64 %48, %47
  store i64 %49, ptr %37, align 8
  br label %_ZN12CVQualifiers14add_qualifiersEbb.exit

50:                                               ; preds = %_ZNSt6vectorIbSaIbEE9push_backEb.exit.i
  invoke void @_ZNSt6vectorIbSaIbEE13_M_insert_auxESt13_Bit_iteratorb(ptr noundef nonnull align 8 dereferenceable(40) %14, ptr %37, i32 %.sroa.2.0.copyload.i5.i4.i, i1 noundef zeroext false)
          to label %_ZN12CVQualifiers14add_qualifiersEbb.exit unwind label %51

51:                                               ; preds = %50, %35, %.thread, %75, %73, %70, %65, %63, %60, %57, %54, %_ZN12CVQualifiersC2ERKS_.exit
  %52 = landingpad { ptr, i32 }
          cleanup
  tail call void @_ZN12CVQualifiersD2Ev(ptr noundef nonnull align 8 dereferenceable(96) %0) #18
  br label %common.resume

53:                                               ; preds = %19
  br i1 %2, label %54, label %57

54:                                               ; preds = %53
  %55 = invoke noundef i32 @_ZN9DepthSpec20depth_guard_by_depthEi(i32 noundef 1)
          to label %56 unwind label %51

56:                                               ; preds = %54
  %.not9 = icmp eq i32 %55, 0
  br i1 %.not9, label %60, label %_ZN12CVQualifiers14add_qualifiersEbb.exit

57:                                               ; preds = %53
  %58 = invoke noundef i32 @_ZN9DepthSpec20depth_guard_by_depthEi(i32 noundef 2)
          to label %59 unwind label %51

59:                                               ; preds = %57
  %.not = icmp eq i32 %58, 0
  br i1 %.not, label %60, label %_ZN12CVQualifiers14add_qualifiersEbb.exit

60:                                               ; preds = %59, %56
  %61 = invoke noundef zeroext i1 @_ZN9CGOptions14const_pointersEv()
          to label %62 unwind label %51

62:                                               ; preds = %60
  br i1 %61, label %63, label %67

63:                                               ; preds = %62
  %64 = invoke noundef i32 @_ZN13Probabilities8get_probE8ProbName(i32 noundef 9)
          to label %65 unwind label %51

65:                                               ; preds = %63
  %66 = invoke noundef zeroext i1 @_Z12rnd_flipcoinjPK6FilterPKNSt7__cxx1112basic_stringIcSt11char_traitsIcESaIcEEE(i32 noundef %64, ptr noundef null, ptr noundef null)
          to label %67 unwind label %51

67:                                               ; preds = %65, %62
  %.07 = phi i1 [ false, %62 ], [ %66, %65 ]
  %68 = load i32, ptr @_ZN5Error8r_error_E, align 4
  %.not10 = icmp eq i32 %68, 0
  br i1 %.not10, label %69, label %_ZN12CVQualifiers14add_qualifiersEbb.exit

69:                                               ; preds = %67
  br i1 %2, label %.thread, label %70

70:                                               ; preds = %69
  %71 = invoke noundef zeroext i1 @_ZN9CGOptions17volatile_pointersEv()
          to label %72 unwind label %51

72:                                               ; preds = %70
  br i1 %71, label %73, label %77

73:                                               ; preds = %72
  %74 = invoke noundef i32 @_ZN13Probabilities8get_probE8ProbName(i32 noundef 8)
          to label %75 unwind label %51

75:                                               ; preds = %73
  %76 = invoke noundef zeroext i1 @_Z12rnd_flipcoinjPK6FilterPKNSt7__cxx1112basic_stringIcSt11char_traitsIcESaIcEEE(i32 noundef %74, ptr noundef null, ptr noundef null)
          to label %77 unwind label %51

77:                                               ; preds = %75, %72
  %.0.ph = phi i1 [ %76, %75 ], [ false, %72 ]
  %.pr = load i32, ptr @_ZN5Error8r_error_E, align 4
  %.not11 = icmp eq i32 %.pr, 0
  br i1 %.not11, label %.thread, label %_ZN12CVQualifiers14add_qualifiersEbb.exit

.thread:                                          ; preds = %69, %77
  %.015 = phi i1 [ %.0.ph, %77 ], [ false, %69 ]
  invoke void @_ZN12CVQualifiers14add_qualifiersEbb(ptr noundef nonnull align 8 dereferenceable(96) %0, i1 noundef zeroext %.07, i1 noundef zeroext %.015)
          to label %_ZN12CVQualifiers14add_qualifiersEbb.exit unwind label %51

_ZN12CVQualifiers14add_qualifiersEbb.exit:        ; preds = %_ZNSt13_Bit_iteratorppEi.exit.i5.i, %50, %56, %59, %67, %77, %.thread
  ret void
}